; Function Attrs: nofree norecurse nosync nounwind memory(argmem: readwrite) uwtable
define internal void @diff16_fun(ptr noundef captures(none) %0, ptr noundef readonly captures(none) %1, i32 noundef %2) #8 {
  %4 = icmp sgt i32 %2, 0
  br i1 %4, label %.lr.ph.preheader, label %._crit_edge

.lr.ph.preheader:                                 ; preds = %3
  %wide.trip.count = zext nneg i32 %2 to i64
  br label %.lr.ph

._crit_edge:                                      ; preds = %.lr.ph, %3
  ret void

.lr.ph:                                           ; preds = %.lr.ph.preheader, %.lr.ph
  %indvars.iv = phi i64 [ 0, %.lr.ph.preheader ], [ %indvars.iv.next, %.lr.ph ]
  %5 = getelementptr inbounds nuw i16, ptr %1, i64 %indvars.iv
  %6 = load i16, ptr %5, align 2, !tbaa !122
  %7 = zext i16 %6 to i32
  %8 = getelementptr inbounds nuw i16, ptr %0, i64 %indvars.iv
  %9 = load i16, ptr %8, align 2, !tbaa !122
  %10 = zext i16 %9 to i32
  %11 = sub nsw i32 %7, %10
  %spec.select15 = tail call i32 @llvm.smax.i32(i32 %11, i32 0)
  %spec.select = trunc nuw i32 %spec.select15 to i16
  store i16 %spec.select, ptr %8, align 2, !tbaa !122
  %indvars.iv.next = add nuw nsw i64 %indvars.iv, 1
  %exitcond.not = icmp eq i64 %indvars.iv.next, %wide.trip.count
  br i1 %exitcond.not, label %._crit_edge, label %.lr.ph, !llvm.loop !128
}